target datalayout = "e-m:e-p270:32:32-p271:32:32-p272:64:64-i64:64-i128:128-f80:128-n8:16:32:64-S128"
target triple = "x86_64-pc-linux-gnu"

%struct.AVCodecContext = type { ptr, i32, i32, ptr, i32, i32, ptr, ptr, ptr, i64, i32, i32, ptr, i32, %struct.AVRational, %struct.AVRational, %struct.AVRational, i32, i32, i32, i32, i32, %struct.AVRational, i32, i32, i32, i32, i32, i32, i32, i32, i32, i32, i32, ptr, ptr, i32, float, float, float, float, float, float, float, float, float, i32, i32, i32, i32, i32, i32, i32, i32, i32, i32, i32, i32, ptr, ptr, ptr, i32, i32, i32, i32, i32, i32, i32, i32, i32, i32, %struct.AVChannelLayout, i32, i32, i32, i32, i32, i32, i32, i32, ptr, i32, i32, i32, float, float, i32, i32, i32, i32, i32, ptr, i64, i64, float, float, i32, i32, ptr, ptr, i32, i32, i32, i32, i32, ptr, ptr, ptr, ptr, i32, i32, [8 x i64], i32, i32, i32, i32, i32, i32, i32, ptr, ptr, i32, i32, i32, i32, i32, i32, i32, i32, i32, i32, ptr, ptr, i32, i32, ptr, ptr, ptr, ptr, i32, i32, i64, i32, i32, i64, ptr, i64, ptr, i32, ptr, i32 }
%struct.AVRational = type { i32, i32 }
%struct.AVChannelLayout = type { i32, i32, %union.anon.0, ptr }
%union.anon.0 = type { i64 }
%struct.AnsiContext = type { ptr, i32, i32, i32, i32, ptr, i32, i32, i32, i32, i32, i32, [4 x i32], i32 }

@avpriv_vga16_font = external constant [4096 x i8], align 16
@.str.4 = private unnamed_addr constant [26 x i8] c"Invalid dimensions %d %d\0A\00", align 1

; Function Attrs: cold nounwind optsize uwtable
define internal i32 @decode_init(ptr noundef %0) #0 {
  %2 = alloca i32, align 4
  %3 = alloca ptr, align 8
  %4 = alloca ptr, align 8
  %5 = alloca i32, align 4
  %6 = alloca i32, align 4
  store ptr %0, ptr %3, align 8, !tbaa !4
  call void @llvm.lifetime.start.p0(i64 8, ptr %4) #7
  %7 = load ptr, ptr %3, align 8, !tbaa !4
  %8 = getelementptr inbounds nuw %struct.AVCodecContext, ptr %7, i32 0, i32 6
  %9 = load ptr, ptr %8, align 8, !tbaa !9
  store ptr %9, ptr %4, align 8, !tbaa !29
  %10 = load ptr, ptr %3, align 8, !tbaa !4
  %11 = getelementptr inbounds nuw %struct.AVCodecContext, ptr %10, i32 0, i32 23
  store i32 11, ptr %11, align 8, !tbaa !31
  %12 = load ptr, ptr %4, align 8, !tbaa !29
  %13 = getelementptr inbounds nuw %struct.AnsiContext, ptr %12, i32 0, i32 5
  store ptr @avpriv_vga16_font, ptr %13, align 8, !tbaa !32
  %14 = load ptr, ptr %4, align 8, !tbaa !29
  %15 = getelementptr inbounds nuw %struct.AnsiContext, ptr %14, i32 0, i32 6
  store i32 16, ptr %15, align 8, !tbaa !35
  %16 = load ptr, ptr %4, align 8, !tbaa !29
  %17 = getelementptr inbounds nuw %struct.AnsiContext, ptr %16, i32 0, i32 8
  store i32 7, ptr %17, align 8, !tbaa !36
  %18 = load ptr, ptr %4, align 8, !tbaa !29
  %19 = getelementptr inbounds nuw %struct.AnsiContext, ptr %18, i32 0, i32 9
  store i32 0, ptr %19, align 4, !tbaa !37
  %20 = load ptr, ptr %3, align 8, !tbaa !4
  %21 = getelementptr inbounds nuw %struct.AVCodecContext, ptr %20, i32 0, i32 18
  %22 = load i32, ptr %21, align 8, !tbaa !38
  %23 = icmp ne i32 %22, 0
  br i1 %23, label %24, label %29

24:                                               ; preds = %1
  %25 = load ptr, ptr %3, align 8, !tbaa !4
  %26 = getelementptr inbounds nuw %struct.AVCodecContext, ptr %25, i32 0, i32 19
  %27 = load i32, ptr %26, align 4, !tbaa !39
  %28 = icmp ne i32 %27, 0
  br i1 %28, label %40, label %29

29:                                               ; preds = %24, %1
  call void @llvm.lifetime.start.p0(i64 4, ptr %5) #7
  %30 = load ptr, ptr %3, align 8, !tbaa !4
  %31 = call i32 @ff_set_dimensions(ptr noundef %30, i32 noundef 640, i32 noundef 400)
  store i32 %31, ptr %5, align 4, !tbaa !40
  %32 = load i32, ptr %5, align 4, !tbaa !40
  %33 = icmp slt i32 %32, 0
  br i1 %33, label %34, label %36

34:                                               ; preds = %29
  %35 = load i32, ptr %5, align 4, !tbaa !40
  store i32 %35, ptr %2, align 4
  store i32 1, ptr %6, align 4
  br label %37

36:                                               ; preds = %29
  store i32 0, ptr %6, align 4
  br label %37

37:                                               ; preds = %36, %34
  call void @llvm.lifetime.end.p0(i64 4, ptr %5) #7
  %38 = load i32, ptr %6, align 4
  switch i32 %38, label %74 [
    i32 0, label %39
  ]

39:                                               ; preds = %37
  br label %64

40:                                               ; preds = %24
  %41 = load ptr, ptr %3, align 8, !tbaa !4
  %42 = getelementptr inbounds nuw %struct.AVCodecContext, ptr %41, i32 0, i32 18
  %43 = load i32, ptr %42, align 8, !tbaa !38
  %44 = srem i32 %43, 8
  %45 = icmp ne i32 %44, 0
  br i1 %45, label %55, label %46

46:                                               ; preds = %40
  %47 = load ptr, ptr %3, align 8, !tbaa !4
  %48 = getelementptr inbounds nuw %struct.AVCodecContext, ptr %47, i32 0, i32 19
  %49 = load i32, ptr %48, align 4, !tbaa !39
  %50 = load ptr, ptr %4, align 8, !tbaa !29
  %51 = getelementptr inbounds nuw %struct.AnsiContext, ptr %50, i32 0, i32 6
  %52 = load i32, ptr %51, align 8, !tbaa !35
  %53 = srem i32 %49, %52
  %54 = icmp ne i32 %53, 0
  br i1 %54, label %55, label %63

55:                                               ; preds = %46, %40
  %56 = load ptr, ptr %3, align 8, !tbaa !4
  %57 = load ptr, ptr %3, align 8, !tbaa !4
  %58 = getelementptr inbounds nuw %struct.AVCodecContext, ptr %57, i32 0, i32 18
  %59 = load i32, ptr %58, align 8, !tbaa !38
  %60 = load ptr, ptr %3, align 8, !tbaa !4
  %61 = getelementptr inbounds nuw %struct.AVCodecContext, ptr %60, i32 0, i32 19
  %62 = load i32, ptr %61, align 4, !tbaa !39
  call void (ptr, i32, ptr, ...) @av_log(ptr noundef %56, i32 noundef 16, ptr noundef @.str.4, i32 noundef %59, i32 noundef %62)
  store i32 -22, ptr %2, align 4
  store i32 1, ptr %6, align 4
  br label %74

63:                                               ; preds = %46
  br label %64

64:                                               ; preds = %63, %39
  %65 = call ptr @av_frame_alloc()
  %66 = load ptr, ptr %4, align 8, !tbaa !29
  %67 = getelementptr inbounds nuw %struct.AnsiContext, ptr %66, i32 0, i32 0
  store ptr %65, ptr %67, align 8, !tbaa !41
  %68 = load ptr, ptr %4, align 8, !tbaa !29
  %69 = getelementptr inbounds nuw %struct.AnsiContext, ptr %68, i32 0, i32 0
  %70 = load ptr, ptr %69, align 8, !tbaa !41
  %71 = icmp ne ptr %70, null
  br i1 %71, label %73, label %72

72:                                               ; preds = %64
  store i32 -12, ptr %2, align 4
  store i32 1, ptr %6, align 4
  br label %74

73:                                               ; preds = %64
  store i32 0, ptr %2, align 4
  store i32 1, ptr %6, align 4
  br label %74

74:                                               ; preds = %73, %72, %55, %37
  call void @llvm.lifetime.end.p0(i64 8, ptr %4) #7
  %75 = load i32, ptr %2, align 4
  ret i32 %75
}