; Function Attrs: cold nounwind optsize uwtable
define internal range(i32 -2147483648, 1) i32 @decode_init(ptr noundef initializes((136, 140)) %0) #0 {
  %2 = getelementptr inbounds nuw i8, ptr %0, i64 32
  %3 = load ptr, ptr %2, align 8, !tbaa !4
  %4 = getelementptr inbounds nuw i8, ptr %0, i64 136
  store i32 11, ptr %4, align 8, !tbaa !27
  %5 = getelementptr inbounds nuw i8, ptr %3, i64 24
  store ptr @avpriv_vga16_font, ptr %5, align 8, !tbaa !28
  %6 = getelementptr inbounds nuw i8, ptr %3, i64 32
  store i32 16, ptr %6, align 8, !tbaa !31
  %7 = getelementptr inbounds nuw i8, ptr %3, i64 40
  store i32 7, ptr %7, align 8, !tbaa !32
  %8 = getelementptr inbounds nuw i8, ptr %3, i64 44
  store i32 0, ptr %8, align 4, !tbaa !33
  %9 = getelementptr inbounds nuw i8, ptr %0, i64 112
  %10 = load i32, ptr %9, align 8, !tbaa !34
  %.not = icmp eq i32 %10, 0
  br i1 %.not, label %14, label %11

11:                                               ; preds = %1
  %12 = getelementptr inbounds nuw i8, ptr %0, i64 116
  %13 = load i32, ptr %12, align 4, !tbaa !35
  %.not23 = icmp eq i32 %13, 0
  br i1 %.not23, label %14, label %17

14:                                               ; preds = %11, %1
  %15 = tail call i32 @ff_set_dimensions(ptr noundef nonnull %0, i32 noundef 640, i32 noundef 400) #7
  %16 = icmp sgt i32 %15, -1
  br i1 %16, label %22, label %24

17:                                               ; preds = %11
  %18 = and i32 %10, 7
  %19 = and i32 %13, 15
  %20 = or i32 %19, %18
  %or.cond = icmp eq i32 %20, 0
  br i1 %or.cond, label %22, label %21

21:                                               ; preds = %17
  tail call void (ptr, i32, ptr, ...) @av_log(ptr noundef nonnull %0, i32 noundef 16, ptr noundef nonnull @.str.4, i32 noundef %10, i32 noundef %13) #7
  br label %24

22:                                               ; preds = %17, %14
  %23 = tail call ptr @av_frame_alloc() #7
  store ptr %23, ptr %3, align 8, !tbaa !36
  %.not26 = icmp eq ptr %23, null
  %. = select i1 %.not26, i32 -12, i32 0
  br label %24

24:                                               ; preds = %22, %14, %21
  %.1 = phi i32 [ -22, %21 ], [ %15, %14 ], [ %., %22 ]
  ret i32 %.1
}